target datalayout = "e-m:e-p270:32:32-p271:32:32-p272:64:64-i64:64-i128:128-f80:128-n8:16:32:64-S128"
target triple = "x86_64-pc-linux-gnu"

%"struct.std::_List_iterator" = type { ptr }
%"class.base::BasicStringPiece" = type { ptr, i64 }
%class.linked_hash_map = type { %"class.std::unordered_map", %"class.std::__cxx11::list" }
%"class.std::unordered_map" = type { %"class.std::_Hashtable" }
%"class.std::_Hashtable" = type { ptr, i64, %"struct.std::__detail::_Hash_node_base", i64, %"struct.std::__detail::_Prime_rehash_policy", ptr }
%"struct.std::__detail::_Hash_node_base" = type { ptr }
%"struct.std::__detail::_Prime_rehash_policy" = type { float, i64 }
%"class.std::__cxx11::list" = type { %"class.std::__cxx11::_List_base" }
%"class.std::__cxx11::_List_base" = type { %"struct.std::__cxx11::_List_base<std::pair<base::BasicStringPiece<std::string>, base::BasicStringPiece<std::string>>, std::allocator<std::pair<base::BasicStringPiece<std::string>, base::BasicStringPiece<std::string>>>>::_List_impl" }
%"struct.std::__cxx11::_List_base<std::pair<base::BasicStringPiece<std::string>, base::BasicStringPiece<std::string>>, std::allocator<std::pair<base::BasicStringPiece<std::string>, base::BasicStringPiece<std::string>>>>::_List_impl" = type { %"struct.std::__detail::_List_node_header" }
%"struct.std::__detail::_List_node_header" = type { %"struct.std::__detail::_List_node_base", i64 }
%"struct.std::__detail::_List_node_base" = type { ptr, ptr }
%"class.net::SpdyHeaderBlock::Storage" = type { %"class.net::UnsafeArena" }
%"class.net::UnsafeArena" = type { i64, %"class.std::vector" }
%"class.std::vector" = type { %"struct.std::_Vector_base" }
%"struct.std::_Vector_base" = type { %"struct.std::_Vector_base<net::UnsafeArena::Block, std::allocator<net::UnsafeArena::Block>>::_Vector_impl" }
%"struct.std::_Vector_base<net::UnsafeArena::Block, std::allocator<net::UnsafeArena::Block>>::_Vector_impl" = type { %"struct.std::_Vector_base<net::UnsafeArena::Block, std::allocator<net::UnsafeArena::Block>>::_Vector_impl_data" }
%"struct.std::_Vector_base<net::UnsafeArena::Block, std::allocator<net::UnsafeArena::Block>>::_Vector_impl_data" = type { ptr, ptr, ptr }
%"struct.std::pair" = type <{ %"struct.std::_List_iterator", i8, [7 x i8] }>
%"class.net::SpdyHeaderBlock" = type { %class.linked_hash_map, %"class.std::unique_ptr" }
%"class.std::unique_ptr" = type { %"struct.std::__uniq_ptr_data" }
%"struct.std::__uniq_ptr_data" = type { %"class.std::__uniq_ptr_impl" }
%"class.std::__uniq_ptr_impl" = type { %"class.std::tuple" }
%"class.std::tuple" = type { %"struct.std::_Tuple_impl" }
%"struct.std::_Tuple_impl" = type { %"struct.std::_Head_base.11" }
%"struct.std::_Head_base.11" = type { ptr }

; Function Attrs: mustprogress nounwind uwtable
define available_externally void @_ZN4base16BasicStringPieceINSt7__cxx1112basic_stringIcSt11char_traitsIcESaIcEEEEC2EPKcm(ptr noundef nonnull align 8 dereferenceable(16) %0, ptr noundef %1, i64 noundef %2) unnamed_addr #0 align 2 {
  %4 = alloca ptr, align 8
  %5 = alloca ptr, align 8
  %6 = alloca i64, align 8
  store ptr %0, ptr %4, align 8, !tbaa !40
  store ptr %1, ptr %5, align 8, !tbaa !24
  store i64 %2, ptr %6, align 8, !tbaa !25
  %7 = load ptr, ptr %4, align 8
  %8 = getelementptr inbounds nuw %"class.base::BasicStringPiece", ptr %7, i32 0, i32 0
  %9 = load ptr, ptr %5, align 8, !tbaa !24
  store ptr %9, ptr %8, align 8, !tbaa !42
  %10 = getelementptr inbounds nuw %"class.base::BasicStringPiece", ptr %7, i32 0, i32 1
  %11 = load i64, ptr %6, align 8, !tbaa !25
  store i64 %11, ptr %10, align 8, !tbaa !43
  ret void
}

; Function Attrs: mustprogress nounwind uwtable
define available_externally noundef i64 @_ZNK4base16BasicStringPieceINSt7__cxx1112basic_stringIcSt11char_traitsIcESaIcEEEE4sizeEv(ptr noundef nonnull align 8 dereferenceable(16) %0) #0 align 2 {
  %2 = alloca ptr, align 8
  store ptr %0, ptr %2, align 8, !tbaa !40
  %3 = load ptr, ptr %2, align 8
  %4 = getelementptr inbounds nuw %"class.base::BasicStringPiece", ptr %3, i32 0, i32 1
  %5 = load i64, ptr %4, align 8, !tbaa !43
  ret i64 %5
}

; Function Attrs: mustprogress nounwind uwtable
define available_externally noundef ptr @_ZNK4base16BasicStringPieceINSt7__cxx1112basic_stringIcSt11char_traitsIcESaIcEEEE4dataEv(ptr noundef nonnull align 8 dereferenceable(16) %0) #0 align 2 {
  %2 = alloca ptr, align 8
  store ptr %0, ptr %2, align 8, !tbaa !40
  %3 = load ptr, ptr %2, align 8
  %4 = getelementptr inbounds nuw %"class.base::BasicStringPiece", ptr %3, i32 0, i32 0
  %5 = load ptr, ptr %4, align 8, !tbaa !42
  ret ptr %5
}

; Function Attrs: mustprogress uwtable
define linkonce_odr { ptr, i64 } @_ZN3net15SpdyHeaderBlock7Storage5WriteEN4base16BasicStringPieceINSt7__cxx1112basic_stringIcSt11char_traitsIcESaIcEEEEE(ptr noundef nonnull align 8 dereferenceable(32) %0, ptr %1, i64 %2) #4 comdat align 2 {
  %4 = alloca %"class.base::BasicStringPiece", align 8
  %5 = alloca %"class.base::BasicStringPiece", align 8
  %6 = alloca ptr, align 8
  %7 = getelementptr inbounds nuw { ptr, i64 }, ptr %5, i32 0, i32 0
  store ptr %1, ptr %7, align 8
  %8 = getelementptr inbounds nuw { ptr, i64 }, ptr %5, i32 0, i32 1
  store i64 %2, ptr %8, align 8
  store ptr %0, ptr %6, align 8, !tbaa !10
  %9 = load ptr, ptr %6, align 8
  %10 = getelementptr inbounds nuw %"class.net::SpdyHeaderBlock::Storage", ptr %9, i32 0, i32 0
  %11 = call noundef ptr @_ZNK4base16BasicStringPieceINSt7__cxx1112basic_stringIcSt11char_traitsIcESaIcEEEE4dataEv(ptr noundef nonnull align 8 dereferenceable(16) %5)
  %12 = call noundef i64 @_ZNK4base16BasicStringPieceINSt7__cxx1112basic_stringIcSt11char_traitsIcESaIcEEEE4sizeEv(ptr noundef nonnull align 8 dereferenceable(16) %5)
  %13 = call noundef ptr @_ZN3net11UnsafeArena6MemdupEPKcm(ptr noundef nonnull align 8 dereferenceable(32) %10, ptr noundef %11, i64 noundef %12)
  %14 = call noundef i64 @_ZNK4base16BasicStringPieceINSt7__cxx1112basic_stringIcSt11char_traitsIcESaIcEEEE4sizeEv(ptr noundef nonnull align 8 dereferenceable(16) %5)
  call void @_ZN4base16BasicStringPieceINSt7__cxx1112basic_stringIcSt11char_traitsIcESaIcEEEEC2EPKcm(ptr noundef nonnull align 8 dereferenceable(16) %4, ptr noundef %13, i64 noundef %14)
  %15 = load { ptr, i64 }, ptr %4, align 8
  ret { ptr, i64 } %15
}

; Function Attrs: mustprogress uwtable
define void @_ZN3net15SpdyHeaderBlock12AppendHeaderEN4base16BasicStringPieceINSt7__cxx1112basic_stringIcSt11char_traitsIcESaIcEEEEES9_(ptr noundef nonnull align 8 dereferenceable(88) %0, ptr %1, i64 %2, ptr %3, i64 %4) #4 align 2 {
  %6 = alloca %"class.base::BasicStringPiece", align 8
  %7 = alloca %"class.base::BasicStringPiece", align 8
  %8 = alloca ptr, align 8
  %9 = alloca %"class.base::BasicStringPiece", align 8
  %10 = alloca %"class.base::BasicStringPiece", align 8
  %11 = alloca %"class.base::BasicStringPiece", align 8
  %12 = alloca %"class.base::BasicStringPiece", align 8
  %13 = alloca %"struct.std::pair", align 8
  %14 = getelementptr inbounds nuw { ptr, i64 }, ptr %6, i32 0, i32 0
  store ptr %1, ptr %14, align 8
  %15 = getelementptr inbounds nuw { ptr, i64 }, ptr %6, i32 0, i32 1
  store i64 %2, ptr %15, align 8
  %16 = getelementptr inbounds nuw { ptr, i64 }, ptr %7, i32 0, i32 0
  store ptr %3, ptr %16, align 8
  %17 = getelementptr inbounds nuw { ptr, i64 }, ptr %7, i32 0, i32 1
  store i64 %4, ptr %17, align 8
  store ptr %0, ptr %8, align 8, !tbaa !44
  %18 = load ptr, ptr %8, align 8
  %19 = getelementptr inbounds nuw %"class.net::SpdyHeaderBlock", ptr %18, i32 0, i32 0
  call void @llvm.lifetime.start.p0(i64 16, ptr %9) #17
  %20 = call noundef ptr @_ZN3net15SpdyHeaderBlock10GetStorageEv(ptr noundef nonnull align 8 dereferenceable(88) %18)
  call void @llvm.memcpy.p0.p0.i64(ptr align 8 %10, ptr align 8 %6, i64 16, i1 false), !tbaa.struct !23
  %21 = getelementptr inbounds nuw { ptr, i64 }, ptr %10, i32 0, i32 0
  %22 = load ptr, ptr %21, align 8
  %23 = getelementptr inbounds nuw { ptr, i64 }, ptr %10, i32 0, i32 1
  %24 = load i64, ptr %23, align 8
  %25 = call { ptr, i64 } @_ZN3net15SpdyHeaderBlock7Storage5WriteEN4base16BasicStringPieceINSt7__cxx1112basic_stringIcSt11char_traitsIcESaIcEEEEE(ptr noundef nonnull align 8 dereferenceable(32) %20, ptr %22, i64 %24)
  %26 = getelementptr inbounds nuw { ptr, i64 }, ptr %9, i32 0, i32 0
  %27 = extractvalue { ptr, i64 } %25, 0
  store ptr %27, ptr %26, align 8
  %28 = getelementptr inbounds nuw { ptr, i64 }, ptr %9, i32 0, i32 1
  %29 = extractvalue { ptr, i64 } %25, 1
  store i64 %29, ptr %28, align 8
  call void @llvm.lifetime.start.p0(i64 16, ptr %11) #17
  %30 = call noundef ptr @_ZN3net15SpdyHeaderBlock10GetStorageEv(ptr noundef nonnull align 8 dereferenceable(88) %18)
  call void @llvm.memcpy.p0.p0.i64(ptr align 8 %12, ptr align 8 %7, i64 16, i1 false), !tbaa.struct !23
  %31 = getelementptr inbounds nuw { ptr, i64 }, ptr %12, i32 0, i32 0
  %32 = load ptr, ptr %31, align 8
  %33 = getelementptr inbounds nuw { ptr, i64 }, ptr %12, i32 0, i32 1
  %34 = load i64, ptr %33, align 8
  %35 = call { ptr, i64 } @_ZN3net15SpdyHeaderBlock7Storage5WriteEN4base16BasicStringPieceINSt7__cxx1112basic_stringIcSt11char_traitsIcESaIcEEEEE(ptr noundef nonnull align 8 dereferenceable(32) %30, ptr %32, i64 %34)
  %36 = getelementptr inbounds nuw { ptr, i64 }, ptr %11, i32 0, i32 0
  %37 = extractvalue { ptr, i64 } %35, 0
  store ptr %37, ptr %36, align 8
  %38 = getelementptr inbounds nuw { ptr, i64 }, ptr %11, i32 0, i32 1
  %39 = extractvalue { ptr, i64 } %35, 1
  store i64 %39, ptr %38, align 8
  %40 = call { ptr, i8 } @_ZN15linked_hash_mapIN4base16BasicStringPieceINSt7__cxx1112basic_stringIcSt11char_traitsIcESaIcEEEEES8_NS0_15StringPieceHashEE7emplaceIJS8_S8_EEESt4pairISt14_List_iteratorISC_IS8_S8_EEbEDpOT_(ptr noundef nonnull align 8 dereferenceable(80) %19, ptr noundef nonnull align 8 dereferenceable(16) %9, ptr noundef nonnull align 8 dereferenceable(16) %11)
  %41 = getelementptr inbounds nuw { ptr, i8 }, ptr %13, i32 0, i32 0
  %42 = extractvalue { ptr, i8 } %40, 0
  store ptr %42, ptr %41, align 8
  %43 = getelementptr inbounds nuw { ptr, i8 }, ptr %13, i32 0, i32 1
  %44 = extractvalue { ptr, i8 } %40, 1
  store i8 %44, ptr %43, align 8
  call void @llvm.lifetime.end.p0(i64 16, ptr %11) #17
  call void @llvm.lifetime.end.p0(i64 16, ptr %9) #17
  ret void
}