; Function Attrs: mustprogress uwtable
define void @_ZN3net15SpdyHeaderBlock12AppendHeaderEN4base16BasicStringPieceINSt7__cxx1112basic_stringIcSt11char_traitsIcESaIcEEEEES9_(ptr noundef nonnull align 8 dereferenceable(88) %0, ptr %1, i64 %2, ptr %3, i64 %4) local_unnamed_addr #7 align 2 {
  %6 = alloca %"class.base::BasicStringPiece", align 8
  %7 = alloca %"class.base::BasicStringPiece", align 8
  call void @llvm.lifetime.start.p0(i64 16, ptr nonnull %6) #19
  %8 = tail call noundef ptr @_ZN3net15SpdyHeaderBlock10GetStorageEv(ptr noundef nonnull align 8 dereferenceable(88) %0)
  %9 = tail call noundef ptr @_ZN3net11UnsafeArena6MemdupEPKcm(ptr noundef nonnull align 8 dereferenceable(32) %8, ptr noundef %1, i64 noundef %2)
  store ptr %9, ptr %6, align 8
  %10 = getelementptr inbounds nuw i8, ptr %6, i64 8
  store i64 %2, ptr %10, align 8
  call void @llvm.lifetime.start.p0(i64 16, ptr nonnull %7) #19
  %11 = tail call noundef ptr @_ZN3net15SpdyHeaderBlock10GetStorageEv(ptr noundef nonnull align 8 dereferenceable(88) %0)
  %12 = tail call noundef ptr @_ZN3net11UnsafeArena6MemdupEPKcm(ptr noundef nonnull align 8 dereferenceable(32) %11, ptr noundef %3, i64 noundef %4)
  store ptr %12, ptr %7, align 8
  %13 = getelementptr inbounds nuw i8, ptr %7, i64 8
  store i64 %4, ptr %13, align 8
  %14 = call { ptr, i8 } @_ZN15linked_hash_mapIN4base16BasicStringPieceINSt7__cxx1112basic_stringIcSt11char_traitsIcESaIcEEEEES8_NS0_15StringPieceHashEE7emplaceIJS8_S8_EEESt4pairISt14_List_iteratorISC_IS8_S8_EEbEDpOT_(ptr noundef nonnull align 8 dereferenceable(80) %0, ptr noundef nonnull align 8 dereferenceable(16) %6, ptr noundef nonnull align 8 dereferenceable(16) %7)
  call void @llvm.lifetime.end.p0(i64 16, ptr nonnull %7) #19
  call void @llvm.lifetime.end.p0(i64 16, ptr nonnull %6) #19
  ret void
}